; Function Attrs: nounwind sspstrong uwtable
define internal range(i64 1, 512) i64 @rb_gzreader_getbyte(i64 noundef %0) #0 {
  %2 = tail call ptr @rb_check_typeddata(i64 noundef %0, ptr noundef nonnull @gzfile_data_type) #18
  %3 = load i64, ptr %2, align 8, !tbaa !113
  %4 = and i64 %3, 1
  %.not.i = icmp eq i64 %4, 0
  br i1 %.not.i, label %5, label %get_gzfile.exit

5:                                                ; preds = %1
  %6 = load i64, ptr @cGzError, align 8, !tbaa !6
  tail call void (i64, ptr, ...) @rb_raise(i64 noundef %6, ptr noundef nonnull @.str.165) #19
  unreachable

get_gzfile.exit:                                  ; preds = %1
  %7 = tail call fastcc i64 @gzfile_read(ptr noundef nonnull %2, i64 noundef 1, i64 noundef 4)
  %8 = icmp eq i64 %7, 4
  br i1 %8, label %19, label %9

9:                                                ; preds = %get_gzfile.exit
  %10 = inttoptr i64 %7 to ptr
  %11 = load i64, ptr %10, align 8, !tbaa !16, !noalias !178
  %12 = and i64 %11, 8192
  %.not.i.i = icmp eq i64 %12, 0
  %13 = getelementptr inbounds nuw i8, ptr %10, i64 24
  br i1 %.not.i.i, label %RSTRING_PTR.exit, label %14

14:                                               ; preds = %9
  %.sroa.2.0.copyload.i = load ptr, ptr %13, align 8
  br label %RSTRING_PTR.exit

RSTRING_PTR.exit:                                 ; preds = %9, %14
  %.sroa.2.0.i = phi ptr [ %.sroa.2.0.copyload.i, %14 ], [ %13, %9 ]
  %15 = load i8, ptr %.sroa.2.0.i, align 1, !tbaa !149
  %16 = zext i8 %15 to i64
  %17 = shl nuw nsw i64 %16, 1
  %18 = or disjoint i64 %17, 1
  br label %19

19:                                               ; preds = %RSTRING_PTR.exit, %get_gzfile.exit
  %.0 = phi i64 [ 4, %get_gzfile.exit ], [ %18, %RSTRING_PTR.exit ]
  ret i64 %.0
}